target datalayout = "e-m:e-p270:32:32-p271:32:32-p272:64:64-i64:64-i128:128-f80:128-n8:16:32:64-S128"
target triple = "x86_64-unknown-linux-gnu"

%"class.node::crypto::NodeBIO" = type { %"class.node::MemoryRetainer", ptr, i64, i64, i64, i32, ptr, ptr }
%"class.node::MemoryRetainer" = type { ptr }
%"class.node::crypto::NodeBIO::Buffer" = type { ptr, i64, i64, i64, ptr, ptr }

; Function Attrs: mustprogress nounwind uwtable
define dso_local noundef ptr @_ZN4node6crypto7NodeBIO4PeekEPm(ptr noundef nonnull align 8 dereferenceable(64) %this, ptr noundef %size) #4 align 2 {
entry:
  %this.addr = alloca ptr, align 8
  %size.addr = alloca ptr, align 8
  store ptr %this, ptr %this.addr, align 8
  store ptr %size, ptr %size.addr, align 8
  %this1 = load ptr, ptr %this.addr, align 8
  %read_head_ = getelementptr inbounds %"class.node::crypto::NodeBIO", ptr %this1, i32 0, i32 6
  %0 = load ptr, ptr %read_head_, align 8
  %write_pos_ = getelementptr inbounds %"class.node::crypto::NodeBIO::Buffer", ptr %0, i32 0, i32 2
  %1 = load i64, ptr %write_pos_, align 8
  %read_head_2 = getelementptr inbounds %"class.node::crypto::NodeBIO", ptr %this1, i32 0, i32 6
  %2 = load ptr, ptr %read_head_2, align 8
  %read_pos_ = getelementptr inbounds %"class.node::crypto::NodeBIO::Buffer", ptr %2, i32 0, i32 1
  %3 = load i64, ptr %read_pos_, align 8
  %sub = sub i64 %1, %3
  %4 = load ptr, ptr %size.addr, align 8
  store i64 %sub, ptr %4, align 8
  %read_head_3 = getelementptr inbounds %"class.node::crypto::NodeBIO", ptr %this1, i32 0, i32 6
  %5 = load ptr, ptr %read_head_3, align 8
  %data_ = getelementptr inbounds %"class.node::crypto::NodeBIO::Buffer", ptr %5, i32 0, i32 5
  %6 = load ptr, ptr %data_, align 8
  %read_head_4 = getelementptr inbounds %"class.node::crypto::NodeBIO", ptr %this1, i32 0, i32 6
  %7 = load ptr, ptr %read_head_4, align 8
  %read_pos_5 = getelementptr inbounds %"class.node::crypto::NodeBIO::Buffer", ptr %7, i32 0, i32 1
  %8 = load i64, ptr %read_pos_5, align 8
  %add.ptr = getelementptr inbounds i8, ptr %6, i64 %8
  ret ptr %add.ptr
}