; Function Attrs: mustprogress nofree norecurse nosync nounwind willreturn memory(read, argmem: readwrite, inaccessiblemem: none) uwtable
define dso_local noundef ptr @_ZN4node6crypto7NodeBIO4PeekEPm(ptr nocapture noundef nonnull readonly align 8 dereferenceable(64) %this, ptr nocapture noundef writeonly %size) local_unnamed_addr #6 align 2 {
entry:
  %read_head_ = getelementptr inbounds i8, ptr %this, i64 48
  %0 = load ptr, ptr %read_head_, align 8
  %write_pos_ = getelementptr inbounds i8, ptr %0, i64 16
  %1 = load i64, ptr %write_pos_, align 8
  %read_pos_ = getelementptr inbounds i8, ptr %0, i64 8
  %2 = load i64, ptr %read_pos_, align 8
  %sub = sub i64 %1, %2
  store i64 %sub, ptr %size, align 8
  %3 = load ptr, ptr %read_head_, align 8
  %data_ = getelementptr inbounds i8, ptr %3, i64 40
  %4 = load ptr, ptr %data_, align 8
  %read_pos_5 = getelementptr inbounds i8, ptr %3, i64 8
  %5 = load i64, ptr %read_pos_5, align 8
  %add.ptr = getelementptr inbounds i8, ptr %4, i64 %5
  ret ptr %add.ptr
}